; Function Attrs: mustprogress nounwind uwtable
define void @_ZN4LIEF2PE20ExDllCharacteristics5parseERKNS0_7details8pe_debugEPNS0_7SectionEN3tcb4spanIhLm18446744073709551615EEE(ptr dead_on_unwind noalias writable writeonly sret(%"class.std::unique_ptr.38") align 8 captures(none) initializes((0, 8)) %0, ptr noundef nonnull align 1 %1, ptr noundef %2, ptr readonly captures(none) %3, i64 %4) local_unnamed_addr #1 align 2 {
  %6 = icmp ult i64 %4, 4
  br i1 %6, label %11, label %7

7:                                                ; preds = %5
  %8 = load i32, ptr %3, align 4, !tbaa !3
  %9 = tail call noalias noundef nonnull dereferenceable(56) ptr @_Znwm(i64 noundef 56) #22, !noalias !7
  tail call void @_ZN4LIEF2PE5DebugC2ERKNS0_7details8pe_debugEPNS0_7SectionE(ptr noundef nonnull align 8 dereferenceable(52) %9, ptr noundef nonnull align 1 %1, ptr noundef %2) #23, !noalias !7
  store ptr getelementptr inbounds nuw inrange(-16, 56) (i8, ptr @_ZTVN4LIEF2PE20ExDllCharacteristicsE, i64 16), ptr %9, align 8, !tbaa !10, !noalias !7
  %10 = getelementptr inbounds nuw i8, ptr %9, i64 48
  store i32 %8, ptr %10, align 8, !tbaa !12, !noalias !7
  br label %11

11:                                               ; preds = %5, %7
  %storemerge = phi ptr [ %9, %7 ], [ null, %5 ]
  store ptr %storemerge, ptr %0, align 8, !tbaa !20
  ret void
}